; Function Attrs: mustprogress nofree norecurse nosync nounwind willreturn memory(readwrite, inaccessiblemem: none) uwtable
define hidden void @_ZN2cv8tinyxml27XMLNode6UnlinkEPS1_(ptr noundef nonnull align 8 captures(none) dereferenceable(88) %0, ptr noundef %1) local_unnamed_addr #16 align 2 {
  %3 = getelementptr inbounds nuw i8, ptr %0, i64 48
  %4 = load ptr, ptr %3, align 8, !tbaa !97
  %5 = icmp eq ptr %1, %4
  br i1 %5, label %6, label %9

6:                                                ; preds = %2
  %7 = getelementptr inbounds nuw i8, ptr %4, i64 72
  %8 = load ptr, ptr %7, align 8, !tbaa !98
  store ptr %8, ptr %3, align 8, !tbaa !97
  br label %9

9:                                                ; preds = %6, %2
  %10 = getelementptr inbounds nuw i8, ptr %0, i64 56
  %11 = load ptr, ptr %10, align 8, !tbaa !99
  %12 = icmp eq ptr %1, %11
  br i1 %12, label %13, label %16

13:                                               ; preds = %9
  %14 = getelementptr inbounds nuw i8, ptr %11, i64 64
  %15 = load ptr, ptr %14, align 8, !tbaa !100
  store ptr %15, ptr %10, align 8, !tbaa !99
  br label %16

16:                                               ; preds = %13, %9
  %17 = getelementptr inbounds nuw i8, ptr %1, i64 64
  %18 = load ptr, ptr %17, align 8, !tbaa !100
  %.not = icmp eq ptr %18, null
  %.phi.trans.insert = getelementptr inbounds nuw i8, ptr %1, i64 72
  %.pre = load ptr, ptr %.phi.trans.insert, align 8, !tbaa !98
  br i1 %.not, label %._crit_edge, label %19

19:                                               ; preds = %16
  %20 = getelementptr inbounds nuw i8, ptr %18, i64 72
  store ptr %.pre, ptr %20, align 8, !tbaa !98
  br label %._crit_edge

._crit_edge:                                      ; preds = %16, %19
  %.not13 = icmp eq ptr %.pre, null
  br i1 %.not13, label %23, label %21

21:                                               ; preds = %._crit_edge
  %22 = getelementptr inbounds nuw i8, ptr %.pre, i64 64
  store ptr %18, ptr %22, align 8, !tbaa !100
  br label %23

23:                                               ; preds = %21, %._crit_edge
  %24 = getelementptr inbounds nuw i8, ptr %1, i64 16
  store ptr null, ptr %24, align 8, !tbaa !38
  ret void
}